target datalayout = "e-m:e-p270:32:32-p271:32:32-p272:64:64-i64:64-i128:128-f80:128-n8:16:32:64-S128"
target triple = "x86_64-pc-linux-gnu"

%struct._object = type { %union.anon, ptr }
%union.anon = type { i64 }
%struct.PyMethodDef = type { ptr, ptr, i32, ptr }
%struct.PyCFunctionObject = type { %struct._object, ptr, ptr, ptr, ptr, ptr }

; Function Attrs: nounwind uwtable
define internal i64 @meth_hash(ptr noundef %0) #0 {
  %2 = alloca ptr, align 8
  %3 = alloca ptr, align 8
  %4 = alloca i64, align 8
  %5 = alloca i64, align 8
  store ptr %0, ptr %2, align 8, !tbaa !9
  call void @llvm.lifetime.start.p0(i64 8, ptr %3) #6
  %6 = load ptr, ptr %2, align 8, !tbaa !9
  store ptr %6, ptr %3, align 8, !tbaa !17
  call void @llvm.lifetime.start.p0(i64 8, ptr %4) #6
  %7 = load ptr, ptr %3, align 8, !tbaa !17
  %8 = getelementptr inbounds nuw %struct.PyCFunctionObject, ptr %7, i32 0, i32 2
  %9 = load ptr, ptr %8, align 8, !tbaa !25
  %10 = call i64 @PyObject_GenericHash(ptr noundef %9)
  store i64 %10, ptr %4, align 8, !tbaa !30
  call void @llvm.lifetime.start.p0(i64 8, ptr %5) #6
  %11 = load ptr, ptr %3, align 8, !tbaa !17
  %12 = getelementptr inbounds nuw %struct.PyCFunctionObject, ptr %11, i32 0, i32 1
  %13 = load ptr, ptr %12, align 8, !tbaa !24
  %14 = getelementptr inbounds nuw %struct.PyMethodDef, ptr %13, i32 0, i32 1
  %15 = load ptr, ptr %14, align 8, !tbaa !113
  %16 = call i64 @Py_HashPointer(ptr noundef %15)
  store i64 %16, ptr %5, align 8, !tbaa !30
  %17 = load i64, ptr %5, align 8, !tbaa !30
  %18 = load i64, ptr %4, align 8, !tbaa !30
  %19 = xor i64 %18, %17
  store i64 %19, ptr %4, align 8, !tbaa !30
  %20 = load i64, ptr %4, align 8, !tbaa !30
  %21 = icmp eq i64 %20, -1
  br i1 %21, label %22, label %23

22:                                               ; preds = %1
  store i64 -2, ptr %4, align 8, !tbaa !30
  br label %23

23:                                               ; preds = %22, %1
  %24 = load i64, ptr %4, align 8, !tbaa !30
  call void @llvm.lifetime.end.p0(i64 8, ptr %5) #6
  call void @llvm.lifetime.end.p0(i64 8, ptr %4) #6
  call void @llvm.lifetime.end.p0(i64 8, ptr %3) #6
  ret i64 %24
}