; Function Attrs: nounwind uwtable
define internal range(i64 0, -1) i64 @meth_hash(ptr noundef readonly captures(none) %0) #0 {
  %2 = getelementptr inbounds nuw i8, ptr %0, i64 24
  %3 = load ptr, ptr %2, align 8, !tbaa !23
  %4 = tail call i64 @PyObject_GenericHash(ptr noundef %3) #5
  %5 = getelementptr inbounds nuw i8, ptr %0, i64 16
  %6 = load ptr, ptr %5, align 8, !tbaa !22
  %7 = getelementptr inbounds nuw i8, ptr %6, i64 8
  %8 = load ptr, ptr %7, align 8, !tbaa !112
  %9 = tail call i64 @Py_HashPointer(ptr noundef %8) #5
  %10 = xor i64 %9, %4
  %spec.store.select = tail call i64 @llvm.umin.i64(i64 %10, i64 -2)
  ret i64 %spec.store.select
}